; Function Attrs: uwtable
define noundef double @_ZTv0_n88_N27colvarbias_restraint_linear17energy_differenceERKNSt7__cxx1112basic_stringIcSt11char_traitsIcESaIcEEE(ptr noundef %0, ptr noundef nonnull align 8 dereferenceable(32) %1) unnamed_addr #3 align 2 {
  %3 = load ptr, ptr %0, align 8
  %4 = getelementptr inbounds i8, ptr %3, i64 -88
  %5 = load i64, ptr %4, align 8
  %6 = getelementptr inbounds i8, ptr %0, i64 %5
  %7 = load ptr, ptr %6, align 8
  %8 = getelementptr i8, ptr %7, i64 -24
  %9 = load i64, ptr %8, align 8
  %10 = getelementptr inbounds i8, ptr %6, i64 %9
  %11 = getelementptr inbounds i8, ptr %10, i64 248
  %12 = load double, ptr %11, align 8
  %13 = getelementptr i8, ptr %7, i64 -176
  %14 = load i64, ptr %13, align 8
  %15 = getelementptr inbounds i8, ptr %6, i64 %14
  %16 = getelementptr inbounds i8, ptr %15, i64 8
  %17 = load double, ptr %16, align 8
  %18 = getelementptr inbounds i8, ptr %7, i64 8
  %19 = load ptr, ptr %18, align 8
  %20 = tail call noundef i32 %19(ptr noundef nonnull align 8 dereferenceable(144) %6, ptr noundef nonnull align 8 dereferenceable(32) %1)
  %21 = load ptr, ptr %6, align 8
  %22 = load ptr, ptr %21, align 8
  %23 = tail call noundef i32 %22(ptr noundef nonnull align 8 dereferenceable(144) %6)
  %24 = load ptr, ptr %6, align 8
  %25 = getelementptr i8, ptr %24, i64 -24
  %26 = load i64, ptr %25, align 8
  %27 = getelementptr inbounds i8, ptr %6, i64 %26
  %28 = getelementptr inbounds i8, ptr %27, i64 248
  %29 = load double, ptr %28, align 8
  %30 = fsub double %29, %12
  store double %12, ptr %28, align 8
  %31 = load ptr, ptr %6, align 8
  %32 = getelementptr i8, ptr %31, i64 -176
  %33 = load i64, ptr %32, align 8
  %34 = getelementptr inbounds i8, ptr %6, i64 %33
  %35 = getelementptr inbounds i8, ptr %34, i64 8
  store double %17, ptr %35, align 8
  ret double %30
}